target datalayout = "e-m:e-p270:32:32-p271:32:32-p272:64:64-i64:64-i128:128-f80:128-n8:16:32:64-S128"
target triple = "x86_64-pc-linux-gnu"

%"class.std::__cxx11::basic_string" = type { %"struct.std::__cxx11::basic_string<char>::_Alloc_hider", i64, %union.anon }
%"struct.std::__cxx11::basic_string<char>::_Alloc_hider" = type { ptr }
%union.anon = type { i64, [8 x i8] }
%"class.std::shared_ptr" = type { %"class.std::__shared_ptr" }
%"class.std::__shared_ptr" = type { ptr, %"class.std::__shared_count" }
%"class.std::__shared_count" = type { ptr }
%"class.OpenColorIO_v2_5dev::XmlReaderContainerElt" = type { %"class.OpenColorIO_v2_5dev::XmlReaderElement" }
%"class.OpenColorIO_v2_5dev::XmlReaderElement" = type { ptr, %"class.std::__cxx11::basic_string", i32, %"class.std::__cxx11::basic_string" }
%"class.OpenColorIO_v2_5dev::CTFReaderOpElt" = type { %"class.OpenColorIO_v2_5dev::XmlReaderContainerElt", %"class.std::shared_ptr", i32, i32 }
%"class.std::shared_ptr.198" = type { %"class.std::__shared_ptr.199" }
%"class.std::__shared_ptr.199" = type { ptr, %"class.std::__shared_count" }
%"class.OpenColorIO_v2_5dev::CTFReaderRangeElt" = type { %"class.OpenColorIO_v2_5dev::CTFReaderOpElt", %"class.std::shared_ptr.198" }
%"class.OpenColorIO_v2_5dev::CTFReaderRangeElt_1_7" = type <{ %"class.OpenColorIO_v2_5dev::CTFReaderRangeElt", i8, [7 x i8] }>

@_ZN19OpenColorIO_v2_5devL10ATTR_STYLEE = internal constant [6 x i8] c"style\00", align 1
@.str.160 = private unnamed_addr constant [8 x i8] c"noClamp\00", align 1

; Function Attrs: mustprogress uwtable
define hidden void @_ZN19OpenColorIO_v2_5dev21CTFReaderRangeElt_1_75startEPPKc(ptr noundef nonnull align 8 dereferenceable(121) %0, ptr noundef %1) unnamed_addr #5 align 2 {
  %3 = alloca ptr, align 8
  %4 = alloca ptr, align 8
  %5 = alloca i32, align 4
  store ptr %0, ptr %3, align 8, !tbaa !718
  store ptr %1, ptr %4, align 8, !tbaa !51
  %6 = load ptr, ptr %3, align 8
  %7 = load ptr, ptr %4, align 8, !tbaa !51
  call void @_ZN19OpenColorIO_v2_5dev14CTFReaderOpElt5startEPPKc(ptr noundef nonnull align 8 dereferenceable(104) %6, ptr noundef %7)
  %8 = getelementptr inbounds nuw %"class.OpenColorIO_v2_5dev::CTFReaderRangeElt_1_7", ptr %6, i32 0, i32 1
  store i8 0, ptr %8, align 8, !tbaa !720
  call void @llvm.lifetime.start.p0(i64 4, ptr %5) #3
  store i32 0, ptr %5, align 4, !tbaa !13
  br label %9

9:                                                ; preds = %35, %2
  %10 = load ptr, ptr %4, align 8, !tbaa !51
  %11 = load i32, ptr %5, align 4, !tbaa !13
  %12 = zext i32 %11 to i64
  %13 = getelementptr inbounds nuw ptr, ptr %10, i64 %12
  %14 = load ptr, ptr %13, align 8, !tbaa !54
  %15 = icmp ne ptr %14, null
  br i1 %15, label %16, label %38

16:                                               ; preds = %9
  %17 = load ptr, ptr %4, align 8, !tbaa !51
  %18 = load i32, ptr %5, align 4, !tbaa !13
  %19 = zext i32 %18 to i64
  %20 = getelementptr inbounds nuw ptr, ptr %17, i64 %19
  %21 = load ptr, ptr %20, align 8, !tbaa !54
  %22 = call noundef i32 @_ZN19OpenColorIO_v2_5dev8Platform10StrcasecmpEPKcS2_(ptr noundef @_ZN19OpenColorIO_v2_5devL10ATTR_STYLEE, ptr noundef %21)
  %23 = icmp eq i32 0, %22
  br i1 %23, label %24, label %35

24:                                               ; preds = %16
  %25 = load ptr, ptr %4, align 8, !tbaa !51
  %26 = load i32, ptr %5, align 4, !tbaa !13
  %27 = add i32 %26, 1
  %28 = zext i32 %27 to i64
  %29 = getelementptr inbounds nuw ptr, ptr %25, i64 %28
  %30 = load ptr, ptr %29, align 8, !tbaa !54
  %31 = call noundef i32 @_ZN19OpenColorIO_v2_5dev8Platform10StrcasecmpEPKcS2_(ptr noundef @.str.160, ptr noundef %30)
  %32 = icmp eq i32 0, %31
  %33 = getelementptr inbounds nuw %"class.OpenColorIO_v2_5dev::CTFReaderRangeElt_1_7", ptr %6, i32 0, i32 1
  %34 = zext i1 %32 to i8
  store i8 %34, ptr %33, align 8, !tbaa !720
  br label %35

35:                                               ; preds = %24, %16
  %36 = load i32, ptr %5, align 4, !tbaa !13
  %37 = add i32 %36, 2
  store i32 %37, ptr %5, align 4, !tbaa !13
  br label %9, !llvm.loop !725

38:                                               ; preds = %9
  call void @llvm.lifetime.end.p0(i64 4, ptr %5) #3
  ret void
}