; Function Attrs: mustprogress uwtable
define hidden void @_ZN19OpenColorIO_v2_5dev21CTFReaderRangeElt_1_75startEPPKc(ptr noundef nonnull align 8 dereferenceable(121) %0, ptr noundef readonly captures(none) %1) unnamed_addr #4 align 2 {
  tail call void @_ZN19OpenColorIO_v2_5dev14CTFReaderOpElt5startEPPKc(ptr noundef nonnull align 8 dereferenceable(104) %0, ptr noundef %1)
  %3 = getelementptr inbounds nuw i8, ptr %0, i64 120
  store i8 0, ptr %3, align 8, !tbaa !1211
  %4 = load ptr, ptr %1, align 8, !tbaa !42
  %.not9 = icmp eq ptr %4, null
  br i1 %.not9, label %._crit_edge, label %.lr.ph

.lr.ph:                                           ; preds = %2, %16
  %5 = phi ptr [ %20, %16 ], [ %4, %2 ]
  %.010 = phi i32 [ %17, %16 ], [ 0, %2 ]
  %6 = tail call noundef i32 @_ZN19OpenColorIO_v2_5dev8Platform10StrcasecmpEPKcS2_(ptr noundef nonnull @_ZN19OpenColorIO_v2_5devL10ATTR_STYLEE, ptr noundef nonnull %5)
  %7 = icmp eq i32 %6, 0
  br i1 %7, label %8, label %16

8:                                                ; preds = %.lr.ph
  %9 = or disjoint i32 %.010, 1
  %10 = zext i32 %9 to i64
  %11 = getelementptr inbounds nuw ptr, ptr %1, i64 %10
  %12 = load ptr, ptr %11, align 8, !tbaa !42
  %13 = tail call noundef i32 @_ZN19OpenColorIO_v2_5dev8Platform10StrcasecmpEPKcS2_(ptr noundef nonnull @.str.160, ptr noundef %12)
  %14 = icmp eq i32 %13, 0
  %15 = zext i1 %14 to i8
  store i8 %15, ptr %3, align 8, !tbaa !1211
  br label %16

16:                                               ; preds = %8, %.lr.ph
  %17 = add i32 %.010, 2
  %18 = zext i32 %17 to i64
  %19 = getelementptr inbounds nuw ptr, ptr %1, i64 %18
  %20 = load ptr, ptr %19, align 8, !tbaa !42
  %.not = icmp eq ptr %20, null
  br i1 %.not, label %._crit_edge, label %.lr.ph, !llvm.loop !1215

._crit_edge:                                      ; preds = %16, %2
  ret void
}